target datalayout = "e-m:e-p270:32:32-p271:32:32-p272:64:64-i64:64-i128:128-f80:128-n8:16:32:64-S128"
target triple = "x86_64-pc-linux-gnu"

%struct.evp_test_st = type { %struct.stanza_st, ptr, i32, ptr, ptr, ptr, ptr, ptr, ptr, i32 }
%struct.stanza_st = type { ptr, ptr, i32, i32, i32, i32, i32, i32, [150 x %struct.pair_st], ptr, [32768 x i8] }
%struct.pair_st = type { ptr, ptr }
%struct.digest_data_st = type { ptr, ptr, ptr, ptr, i64, i32, i32, i64 }
%struct.evp_test_buffer_st = type { ptr, i64, i64, i32 }

@data_chunk_size = internal global i32 0, align 4
@.str.216 = private unnamed_addr constant [6 x i8] c"Input\00", align 1
@.str.217 = private unnamed_addr constant [7 x i8] c"Output\00", align 1
@.str.218 = private unnamed_addr constant [6 x i8] c"Count\00", align 1
@.str.219 = private unnamed_addr constant [6 x i8] c"Ncopy\00", align 1
@.str.220 = private unnamed_addr constant [8 x i8] c"Padding\00", align 1
@.str.221 = private unnamed_addr constant [4 x i8] c"XOF\00", align 1
@.str.222 = private unnamed_addr constant [11 x i8] c"OutputSize\00", align 1

; Function Attrs: inlinehint nounwind uwtable
define internal ptr @sk_EVP_TEST_BUFFER_value(ptr noundef %0, i32 noundef %1) #5 {
  %3 = alloca ptr, align 8
  %4 = alloca i32, align 4
  store ptr %0, ptr %3, align 8, !tbaa !204
  store i32 %1, ptr %4, align 4, !tbaa !9
  %5 = load ptr, ptr %3, align 8, !tbaa !204
  %6 = load i32, ptr %4, align 4, !tbaa !9
  %7 = call ptr @OPENSSL_sk_value(ptr noundef %5, i32 noundef %6)
  ret ptr %7
}

; Function Attrs: inlinehint nounwind uwtable
define internal i32 @sk_EVP_TEST_BUFFER_num(ptr noundef %0) #5 {
  %2 = alloca ptr, align 8
  store ptr %0, ptr %2, align 8, !tbaa !204
  %3 = load ptr, ptr %2, align 8, !tbaa !204
  %4 = call i32 @OPENSSL_sk_num(ptr noundef %3)
  ret i32 %4
}

; Function Attrs: inlinehint nounwind willreturn memory(read) uwtable
define available_externally i32 @atoi(ptr noundef nonnull %0) #4 {
  %2 = alloca ptr, align 8
  store ptr %0, ptr %2, align 8, !tbaa !4
  %3 = load ptr, ptr %2, align 8, !tbaa !4
  %4 = call i64 @strtol(ptr noundef %3, ptr noundef null, i32 noundef 10) #10
  %5 = trunc i64 %4 to i32
  ret i32 %5
}

; Function Attrs: nounwind uwtable
define internal i32 @evp_test_buffer_set_count(ptr noundef %0, ptr noundef %1) #0 {
  %3 = alloca i32, align 4
  %4 = alloca ptr, align 8
  %5 = alloca ptr, align 8
  %6 = alloca ptr, align 8
  %7 = alloca i32, align 4
  %8 = alloca i32, align 4
  store ptr %0, ptr %4, align 8, !tbaa !4
  store ptr %1, ptr %5, align 8, !tbaa !204
  call void @llvm.lifetime.start.p0(i64 8, ptr %6) #10
  call void @llvm.lifetime.start.p0(i64 4, ptr %7) #10
  %9 = load ptr, ptr %4, align 8, !tbaa !4
  %10 = call i32 @atoi(ptr noundef %9) #11
  store i32 %10, ptr %7, align 4, !tbaa !9
  %11 = load i32, ptr %7, align 4, !tbaa !9
  %12 = icmp sle i32 %11, 0
  br i1 %12, label %13, label %14

13:                                               ; preds = %2
  store i32 0, ptr %3, align 4
  store i32 1, ptr %8, align 4
  br label %40

14:                                               ; preds = %2
  %15 = load ptr, ptr %5, align 8, !tbaa !204
  %16 = icmp eq ptr %15, null
  br i1 %16, label %21, label %17

17:                                               ; preds = %14
  %18 = load ptr, ptr %5, align 8, !tbaa !204
  %19 = call i32 @sk_EVP_TEST_BUFFER_num(ptr noundef %18)
  %20 = icmp eq i32 %19, 0
  br i1 %20, label %21, label %22

21:                                               ; preds = %17, %14
  store i32 0, ptr %3, align 4
  store i32 1, ptr %8, align 4
  br label %40

22:                                               ; preds = %17
  %23 = load ptr, ptr %5, align 8, !tbaa !204
  %24 = load ptr, ptr %5, align 8, !tbaa !204
  %25 = call i32 @sk_EVP_TEST_BUFFER_num(ptr noundef %24)
  %26 = sub nsw i32 %25, 1
  %27 = call ptr @sk_EVP_TEST_BUFFER_value(ptr noundef %23, i32 noundef %26)
  store ptr %27, ptr %6, align 8, !tbaa !198
  %28 = load ptr, ptr %6, align 8, !tbaa !198
  %29 = getelementptr inbounds nuw %struct.evp_test_buffer_st, ptr %28, i32 0, i32 3
  %30 = load i32, ptr %29, align 8, !tbaa !200
  %31 = icmp ne i32 %30, 0
  br i1 %31, label %32, label %33

32:                                               ; preds = %22
  store i32 0, ptr %3, align 4
  store i32 1, ptr %8, align 4
  br label %40

33:                                               ; preds = %22
  %34 = load i32, ptr %7, align 4, !tbaa !9
  %35 = sext i32 %34 to i64
  %36 = load ptr, ptr %6, align 8, !tbaa !198
  %37 = getelementptr inbounds nuw %struct.evp_test_buffer_st, ptr %36, i32 0, i32 2
  store i64 %35, ptr %37, align 8, !tbaa !207
  %38 = load ptr, ptr %6, align 8, !tbaa !198
  %39 = getelementptr inbounds nuw %struct.evp_test_buffer_st, ptr %38, i32 0, i32 3
  store i32 1, ptr %39, align 8, !tbaa !200
  store i32 1, ptr %3, align 4
  store i32 1, ptr %8, align 4
  br label %40

40:                                               ; preds = %33, %32, %21, %13
  call void @llvm.lifetime.end.p0(i64 4, ptr %7) #10
  call void @llvm.lifetime.end.p0(i64 8, ptr %6) #10
  %41 = load i32, ptr %3, align 4
  ret i32 %41
}

; Function Attrs: nounwind uwtable
define internal i32 @digest_test_parse(ptr noundef %0, ptr noundef %1, ptr noundef %2) #0 {
  %4 = alloca i32, align 4
  %5 = alloca ptr, align 8
  %6 = alloca ptr, align 8
  %7 = alloca ptr, align 8
  %8 = alloca ptr, align 8
  %9 = alloca i32, align 4
  %10 = alloca i32, align 4
  store ptr %0, ptr %5, align 8, !tbaa !15
  store ptr %1, ptr %6, align 8, !tbaa !4
  store ptr %2, ptr %7, align 8, !tbaa !4
  call void @llvm.lifetime.start.p0(i64 8, ptr %8) #10
  %11 = load ptr, ptr %5, align 8, !tbaa !15
  %12 = getelementptr inbounds nuw %struct.evp_test_st, ptr %11, i32 0, i32 8
  %13 = load ptr, ptr %12, align 8, !tbaa !66
  store ptr %13, ptr %8, align 8, !tbaa !184
  %14 = load ptr, ptr %6, align 8, !tbaa !4
  %15 = call i32 @strcmp(ptr noundef %14, ptr noundef @.str.216) #11
  %16 = icmp eq i32 %15, 0
  br i1 %16, label %17, label %24

17:                                               ; preds = %3
  %18 = load ptr, ptr %7, align 8, !tbaa !4
  %19 = load i32, ptr @data_chunk_size, align 4, !tbaa !9
  %20 = sext i32 %19 to i64
  %21 = load ptr, ptr %8, align 8, !tbaa !184
  %22 = getelementptr inbounds nuw %struct.digest_data_st, ptr %21, i32 0, i32 2
  %23 = call i32 @evp_test_buffer_append(ptr noundef %18, i64 noundef %20, ptr noundef %22)
  store i32 %23, ptr %4, align 4
  store i32 1, ptr %9, align 4
  br label %94

24:                                               ; preds = %3
  %25 = load ptr, ptr %6, align 8, !tbaa !4
  %26 = call i32 @strcmp(ptr noundef %25, ptr noundef @.str.217) #11
  %27 = icmp eq i32 %26, 0
  br i1 %27, label %28, label %35

28:                                               ; preds = %24
  %29 = load ptr, ptr %7, align 8, !tbaa !4
  %30 = load ptr, ptr %8, align 8, !tbaa !184
  %31 = getelementptr inbounds nuw %struct.digest_data_st, ptr %30, i32 0, i32 3
  %32 = load ptr, ptr %8, align 8, !tbaa !184
  %33 = getelementptr inbounds nuw %struct.digest_data_st, ptr %32, i32 0, i32 4
  %34 = call i32 @parse_bin(ptr noundef %29, ptr noundef %31, ptr noundef %33)
  store i32 %34, ptr %4, align 4
  store i32 1, ptr %9, align 4
  br label %94

35:                                               ; preds = %24
  %36 = load ptr, ptr %6, align 8, !tbaa !4
  %37 = call i32 @strcmp(ptr noundef %36, ptr noundef @.str.218) #11
  %38 = icmp eq i32 %37, 0
  br i1 %38, label %39, label %45

39:                                               ; preds = %35
  %40 = load ptr, ptr %7, align 8, !tbaa !4
  %41 = load ptr, ptr %8, align 8, !tbaa !184
  %42 = getelementptr inbounds nuw %struct.digest_data_st, ptr %41, i32 0, i32 2
  %43 = load ptr, ptr %42, align 8, !tbaa !192
  %44 = call i32 @evp_test_buffer_set_count(ptr noundef %40, ptr noundef %43)
  store i32 %44, ptr %4, align 4
  store i32 1, ptr %9, align 4
  br label %94

45:                                               ; preds = %35
  %46 = load ptr, ptr %6, align 8, !tbaa !4
  %47 = call i32 @strcmp(ptr noundef %46, ptr noundef @.str.219) #11
  %48 = icmp eq i32 %47, 0
  br i1 %48, label %49, label %55

49:                                               ; preds = %45
  %50 = load ptr, ptr %7, align 8, !tbaa !4
  %51 = load ptr, ptr %8, align 8, !tbaa !184
  %52 = getelementptr inbounds nuw %struct.digest_data_st, ptr %51, i32 0, i32 2
  %53 = load ptr, ptr %52, align 8, !tbaa !192
  %54 = call i32 @evp_test_buffer_ncopy(ptr noundef %50, ptr noundef %53)
  store i32 %54, ptr %4, align 4
  store i32 1, ptr %9, align 4
  br label %94

55:                                               ; preds = %45
  %56 = load ptr, ptr %6, align 8, !tbaa !4
  %57 = call i32 @strcmp(ptr noundef %56, ptr noundef @.str.220) #11
  %58 = icmp eq i32 %57, 0
  br i1 %58, label %59, label %66

59:                                               ; preds = %55
  %60 = load ptr, ptr %7, align 8, !tbaa !4
  %61 = call i32 @atoi(ptr noundef %60) #11
  %62 = load ptr, ptr %8, align 8, !tbaa !184
  %63 = getelementptr inbounds nuw %struct.digest_data_st, ptr %62, i32 0, i32 5
  store i32 %61, ptr %63, align 8, !tbaa !190
  %64 = icmp sgt i32 %61, 0
  %65 = zext i1 %64 to i32
  store i32 %65, ptr %4, align 4
  store i32 1, ptr %9, align 4
  br label %94

66:                                               ; preds = %55
  %67 = load ptr, ptr %6, align 8, !tbaa !4
  %68 = call i32 @strcmp(ptr noundef %67, ptr noundef @.str.221) #11
  %69 = icmp eq i32 %68, 0
  br i1 %69, label %70, label %77

70:                                               ; preds = %66
  %71 = load ptr, ptr %7, align 8, !tbaa !4
  %72 = call i32 @atoi(ptr noundef %71) #11
  %73 = load ptr, ptr %8, align 8, !tbaa !184
  %74 = getelementptr inbounds nuw %struct.digest_data_st, ptr %73, i32 0, i32 6
  store i32 %72, ptr %74, align 4, !tbaa !191
  %75 = icmp sgt i32 %72, 0
  %76 = zext i1 %75 to i32
  store i32 %76, ptr %4, align 4
  store i32 1, ptr %9, align 4
  br label %94

77:                                               ; preds = %66
  %78 = load ptr, ptr %6, align 8, !tbaa !4
  %79 = call i32 @strcmp(ptr noundef %78, ptr noundef @.str.222) #11
  %80 = icmp eq i32 %79, 0
  br i1 %80, label %81, label %93

81:                                               ; preds = %77
  call void @llvm.lifetime.start.p0(i64 4, ptr %10) #10
  %82 = load ptr, ptr %7, align 8, !tbaa !4
  %83 = call i32 @atoi(ptr noundef %82) #11
  store i32 %83, ptr %10, align 4, !tbaa !9
  %84 = load i32, ptr %10, align 4, !tbaa !9
  %85 = icmp slt i32 %84, 0
  br i1 %85, label %86, label %87

86:                                               ; preds = %81
  store i32 -1, ptr %4, align 4
  store i32 1, ptr %9, align 4
  br label %92

87:                                               ; preds = %81
  %88 = load i32, ptr %10, align 4, !tbaa !9
  %89 = sext i32 %88 to i64
  %90 = load ptr, ptr %8, align 8, !tbaa !184
  %91 = getelementptr inbounds nuw %struct.digest_data_st, ptr %90, i32 0, i32 7
  store i64 %89, ptr %91, align 8, !tbaa !194
  store i32 1, ptr %4, align 4
  store i32 1, ptr %9, align 4
  br label %92

92:                                               ; preds = %87, %86
  call void @llvm.lifetime.end.p0(i64 4, ptr %10) #10
  br label %94

93:                                               ; preds = %77
  store i32 0, ptr %4, align 4
  store i32 1, ptr %9, align 4
  br label %94

94:                                               ; preds = %93, %92, %70, %59, %49, %39, %28, %17
  call void @llvm.lifetime.end.p0(i64 8, ptr %8) #10
  %95 = load i32, ptr %4, align 4
  ret i32 %95
}