; Function Attrs: nounwind uwtable
define internal range(i32 -1, 2) i32 @digest_test_parse(ptr noundef readonly captures(none) %0, ptr noundef readonly captures(none) %1, ptr noundef %2) #1 {
  %4 = getelementptr inbounds nuw i8, ptr %0, i64 35272
  %5 = load ptr, ptr %4, align 8, !tbaa !20
  %6 = tail call i32 @strcmp(ptr noundef nonnull dereferenceable(1) %1, ptr noundef nonnull dereferenceable(6) @.str.216) #11
  %7 = icmp eq i32 %6, 0
  br i1 %7, label %8, label %13

8:                                                ; preds = %3
  %9 = load i32, ptr @data_chunk_size, align 4, !tbaa !4
  %10 = sext i32 %9 to i64
  %11 = getelementptr inbounds nuw i8, ptr %5, i64 16
  %12 = tail call fastcc i32 @evp_test_buffer_append(ptr noundef %2, i64 noundef %10, ptr noundef nonnull %11)
  br label %evp_test_buffer_set_count.exit

13:                                               ; preds = %3
  %14 = tail call i32 @strcmp(ptr noundef nonnull dereferenceable(1) %1, ptr noundef nonnull dereferenceable(7) @.str.217) #11
  %15 = icmp eq i32 %14, 0
  br i1 %15, label %16, label %20

16:                                               ; preds = %13
  %17 = getelementptr inbounds nuw i8, ptr %5, i64 24
  %18 = getelementptr inbounds nuw i8, ptr %5, i64 32
  %19 = tail call fastcc i32 @parse_bin(ptr noundef %2, ptr noundef nonnull %17, ptr noundef nonnull %18)
  br label %evp_test_buffer_set_count.exit

20:                                               ; preds = %13
  %21 = tail call i32 @strcmp(ptr noundef nonnull dereferenceable(1) %1, ptr noundef nonnull dereferenceable(6) @.str.218) #11
  %22 = icmp eq i32 %21, 0
  br i1 %22, label %23, label %42

23:                                               ; preds = %20
  %24 = getelementptr inbounds nuw i8, ptr %5, i64 16
  %25 = load ptr, ptr %24, align 8, !tbaa !157
  %26 = tail call i64 @strtol(ptr noundef nonnull readonly captures(none) %2, ptr noundef null, i32 noundef 10) #10
  %27 = trunc i64 %26 to i32
  %28 = icmp slt i32 %27, 1
  %29 = icmp eq ptr %25, null
  %or.cond.i = or i1 %29, %28
  br i1 %or.cond.i, label %evp_test_buffer_set_count.exit, label %30

30:                                               ; preds = %23
  %31 = tail call i32 @OPENSSL_sk_num(ptr noundef nonnull %25) #10
  %32 = icmp eq i32 %31, 0
  br i1 %32, label %evp_test_buffer_set_count.exit, label %33

33:                                               ; preds = %30
  %34 = tail call i32 @OPENSSL_sk_num(ptr noundef nonnull %25) #10
  %35 = add nsw i32 %34, -1
  %36 = tail call ptr @OPENSSL_sk_value(ptr noundef nonnull %25, i32 noundef %35) #10
  %37 = getelementptr inbounds nuw i8, ptr %36, i64 24
  %38 = load i32, ptr %37, align 8, !tbaa !159
  %.not.i = icmp eq i32 %38, 0
  br i1 %.not.i, label %39, label %evp_test_buffer_set_count.exit

39:                                               ; preds = %33
  %40 = and i64 %26, 2147483647
  %41 = getelementptr inbounds nuw i8, ptr %36, i64 16
  store i64 %40, ptr %41, align 8, !tbaa !161
  store i32 1, ptr %37, align 8, !tbaa !159
  br label %evp_test_buffer_set_count.exit

42:                                               ; preds = %20
  %43 = tail call i32 @strcmp(ptr noundef nonnull dereferenceable(1) %1, ptr noundef nonnull dereferenceable(6) @.str.219) #11
  %44 = icmp eq i32 %43, 0
  br i1 %44, label %45, label %49

45:                                               ; preds = %42
  %46 = getelementptr inbounds nuw i8, ptr %5, i64 16
  %47 = load ptr, ptr %46, align 8, !tbaa !157
  %48 = tail call fastcc i32 @evp_test_buffer_ncopy(ptr noundef %2, ptr noundef %47)
  br label %evp_test_buffer_set_count.exit

49:                                               ; preds = %42
  %50 = tail call i32 @strcmp(ptr noundef nonnull dereferenceable(1) %1, ptr noundef nonnull dereferenceable(8) @.str.220) #11
  %51 = icmp eq i32 %50, 0
  br i1 %51, label %52, label %58

52:                                               ; preds = %49
  %53 = tail call i64 @strtol(ptr noundef nonnull captures(none) %2, ptr noundef null, i32 noundef 10) #10
  %54 = trunc i64 %53 to i32
  %55 = getelementptr inbounds nuw i8, ptr %5, i64 40
  store i32 %54, ptr %55, align 8, !tbaa !155
  %56 = icmp sgt i32 %54, 0
  %57 = zext i1 %56 to i32
  br label %evp_test_buffer_set_count.exit

58:                                               ; preds = %49
  %59 = tail call i32 @strcmp(ptr noundef nonnull dereferenceable(1) %1, ptr noundef nonnull dereferenceable(4) @.str.221) #11
  %60 = icmp eq i32 %59, 0
  br i1 %60, label %61, label %67

61:                                               ; preds = %58
  %62 = tail call i64 @strtol(ptr noundef nonnull captures(none) %2, ptr noundef null, i32 noundef 10) #10
  %63 = trunc i64 %62 to i32
  %64 = getelementptr inbounds nuw i8, ptr %5, i64 44
  store i32 %63, ptr %64, align 4, !tbaa !156
  %65 = icmp sgt i32 %63, 0
  %66 = zext i1 %65 to i32
  br label %evp_test_buffer_set_count.exit

67:                                               ; preds = %58
  %68 = tail call i32 @strcmp(ptr noundef nonnull dereferenceable(1) %1, ptr noundef nonnull dereferenceable(11) @.str.222) #11
  %69 = icmp eq i32 %68, 0
  br i1 %69, label %70, label %evp_test_buffer_set_count.exit

70:                                               ; preds = %67
  %71 = tail call i64 @strtol(ptr noundef nonnull captures(none) %2, ptr noundef null, i32 noundef 10) #10
  %72 = and i64 %71, 2147483648
  %.not = icmp eq i64 %72, 0
  br i1 %.not, label %73, label %evp_test_buffer_set_count.exit

73:                                               ; preds = %70
  %74 = and i64 %71, 2147483647
  %75 = getelementptr inbounds nuw i8, ptr %5, i64 48
  store i64 %74, ptr %75, align 8, !tbaa !162
  br label %evp_test_buffer_set_count.exit

evp_test_buffer_set_count.exit:                   ; preds = %39, %33, %30, %23, %67, %73, %70, %61, %52, %45, %16, %8
  %.0 = phi i32 [ %12, %8 ], [ %19, %16 ], [ %48, %45 ], [ %57, %52 ], [ %66, %61 ], [ 1, %73 ], [ -1, %70 ], [ 0, %67 ], [ 1, %39 ], [ 0, %23 ], [ 0, %30 ], [ 0, %33 ]
  ret i32 %.0
}